target datalayout = "e-m:e-p270:32:32-p271:32:32-p272:64:64-i64:64-i128:128-f80:128-n8:16:32:64-S128"
target triple = "x86_64-pc-linux-gnu"

%"class.std::basic_string_view" = type { i64, ptr }
%"class.absl::lts_20240722::Status" = type { i64 }
%"class.grpc_core::DebugLocation" = type { i8 }
%"class.std::vector" = type { %"struct.std::_Vector_base" }
%"struct.std::_Vector_base" = type { %"struct.std::_Vector_base<absl::lts_20240722::Status, std::allocator<absl::lts_20240722::Status>>::_Vector_impl" }
%"struct.std::_Vector_base<absl::lts_20240722::Status, std::allocator<absl::lts_20240722::Status>>::_Vector_impl" = type { %"struct.std::_Vector_base<absl::lts_20240722::Status, std::allocator<absl::lts_20240722::Status>>::_Vector_impl_data" }
%"struct.std::_Vector_base<absl::lts_20240722::Status, std::allocator<absl::lts_20240722::Status>>::_Vector_impl_data" = type { ptr, ptr, ptr }
%struct.tsi_peer_property = type { ptr, %struct.anon }
%struct.anon = type { ptr, i64 }

@.str = private unnamed_addr constant [141 x i8] c"generated/home/dtcxzyw/WorkSpace/Projects/compilers/llvm-opt-benchmark/bench/grpc/grpc/src/core/lib/security/security_connector/ssl_utils.cc\00", align 1
@.str.2 = private unnamed_addr constant [27 x i8] c"ssl_alpn_selected_protocol\00", align 1
@.str.3 = private unnamed_addr constant [51 x i8] c"Cannot check peer: missing selected ALPN property.\00", align 1
@.str.4 = private unnamed_addr constant [39 x i8] c"Cannot check peer: invalid ALPN value.\00", align 1

; Function Attrs: mustprogress nounwind uwtable
define linkonce_odr void @_ZNSt15__new_allocatorIN4absl12lts_202407226StatusEEC2Ev(ptr noundef nonnull align 1 dereferenceable(1) %0) unnamed_addr #4 comdat align 2 {
  %2 = alloca ptr, align 8
  store ptr %0, ptr %2, align 8, !tbaa !212
  ret void
}

; Function Attrs: mustprogress nounwind uwtable
define linkonce_odr void @_ZN4absl12lts_202407226StatusC2Em(ptr noundef nonnull align 8 dereferenceable(8) %0, i64 noundef %1) unnamed_addr #4 comdat align 2 {
  %3 = alloca ptr, align 8
  %4 = alloca i64, align 8
  store ptr %0, ptr %3, align 8, !tbaa !165
  store i64 %1, ptr %4, align 8, !tbaa !42
  %5 = load ptr, ptr %3, align 8
  %6 = getelementptr inbounds nuw %"class.absl::lts_20240722::Status", ptr %5, i32 0, i32 0
  %7 = load i64, ptr %4, align 8, !tbaa !42
  store i64 %7, ptr %6, align 8, !tbaa !216
  ret void
}

; Function Attrs: mustprogress nounwind uwtable
define linkonce_odr noundef i64 @_ZN4absl12lts_202407226Status16CodeToInlinedRepENS0_10StatusCodeE(i32 noundef %0) #4 comdat align 2 {
  %2 = alloca i32, align 4
  store i32 %0, ptr %2, align 4, !tbaa !214
  %3 = load i32, ptr %2, align 4, !tbaa !214
  %4 = sext i32 %3 to i64
  %5 = shl i64 %4, 2
  %6 = add i64 %5, 1
  ret i64 %6
}

; Function Attrs: mustprogress nounwind uwtable
define linkonce_odr void @_ZNSt12_Vector_baseIN4absl12lts_202407226StatusESaIS2_EE17_Vector_impl_dataC2Ev(ptr noundef nonnull align 8 dereferenceable(24) %0) unnamed_addr #4 comdat align 2 {
  %2 = alloca ptr, align 8
  store ptr %0, ptr %2, align 8, !tbaa !209
  %3 = load ptr, ptr %2, align 8
  %4 = getelementptr inbounds nuw %"struct.std::_Vector_base<absl::lts_20240722::Status, std::allocator<absl::lts_20240722::Status>>::_Vector_impl_data", ptr %3, i32 0, i32 0
  store ptr null, ptr %4, align 8, !tbaa !37
  %5 = getelementptr inbounds nuw %"struct.std::_Vector_base<absl::lts_20240722::Status, std::allocator<absl::lts_20240722::Status>>::_Vector_impl_data", ptr %3, i32 0, i32 1
  store ptr null, ptr %5, align 8, !tbaa !40
  %6 = getelementptr inbounds nuw %"struct.std::_Vector_base<absl::lts_20240722::Status, std::allocator<absl::lts_20240722::Status>>::_Vector_impl_data", ptr %3, i32 0, i32 2
  store ptr null, ptr %6, align 8, !tbaa !211
  ret void
}

; Function Attrs: mustprogress nounwind uwtable
define linkonce_odr void @_ZNSaIN4absl12lts_202407226StatusEEC2Ev(ptr noundef nonnull align 1 dereferenceable(1) %0) unnamed_addr #4 comdat align 2 {
  %2 = alloca ptr, align 8
  store ptr %0, ptr %2, align 8, !tbaa !207
  %3 = load ptr, ptr %2, align 8
  call void @_ZNSt15__new_allocatorIN4absl12lts_202407226StatusEEC2Ev(ptr noundef nonnull align 1 dereferenceable(1) %3) #3
  ret void
}

; Function Attrs: inlinehint mustprogress uwtable
define linkonce_odr void @_ZN4absl12lts_202407226StatusC2ENS0_10StatusCodeE(ptr noundef nonnull align 8 dereferenceable(8) %0, i32 noundef %1) unnamed_addr #10 comdat align 2 {
  %3 = alloca ptr, align 8
  %4 = alloca i32, align 4
  store ptr %0, ptr %3, align 8, !tbaa !165
  store i32 %1, ptr %4, align 4, !tbaa !214
  %5 = load ptr, ptr %3, align 8
  %6 = load i32, ptr %4, align 4, !tbaa !214
  %7 = call noundef i64 @_ZN4absl12lts_202407226Status16CodeToInlinedRepENS0_10StatusCodeE(i32 noundef %6)
  call void @_ZN4absl12lts_202407226StatusC2Em(ptr noundef nonnull align 8 dereferenceable(8) %5, i64 noundef %7)
  ret void
}

; Function Attrs: mustprogress nounwind uwtable
define linkonce_odr void @_ZNSt12_Vector_baseIN4absl12lts_202407226StatusESaIS2_EE12_Vector_implC2Ev(ptr noundef nonnull align 8 dereferenceable(24) %0) unnamed_addr #4 comdat align 2 {
  %2 = alloca ptr, align 8
  store ptr %0, ptr %2, align 8, !tbaa !205
  %3 = load ptr, ptr %2, align 8
  call void @_ZNSaIN4absl12lts_202407226StatusEEC2Ev(ptr noundef nonnull align 1 dereferenceable(1) %3) #3
  call void @_ZNSt12_Vector_baseIN4absl12lts_202407226StatusESaIS2_EE17_Vector_impl_dataC2Ev(ptr noundef nonnull align 8 dereferenceable(24) %3) #3
  ret void
}

; Function Attrs: inlinehint mustprogress uwtable
define linkonce_odr void @_ZN4absl12lts_202407226StatusC2Ev(ptr noundef nonnull align 8 dereferenceable(8) %0) unnamed_addr #10 comdat align 2 {
  %2 = alloca ptr, align 8
  store ptr %0, ptr %2, align 8, !tbaa !165
  %3 = load ptr, ptr %2, align 8
  call void @_ZN4absl12lts_202407226StatusC2ENS0_10StatusCodeE(ptr noundef nonnull align 8 dereferenceable(8) %3, i32 noundef 0)
  ret void
}

; Function Attrs: mustprogress nounwind uwtable
define linkonce_odr void @_ZNSt12_Vector_baseIN4absl12lts_202407226StatusESaIS2_EEC2Ev(ptr noundef nonnull align 8 dereferenceable(24) %0) unnamed_addr #4 comdat align 2 {
  %2 = alloca ptr, align 8
  store ptr %0, ptr %2, align 8, !tbaa !203
  %3 = load ptr, ptr %2, align 8
  %4 = getelementptr inbounds nuw %"struct.std::_Vector_base", ptr %3, i32 0, i32 0
  call void @_ZNSt12_Vector_baseIN4absl12lts_202407226StatusESaIS2_EE12_Vector_implC2Ev(ptr noundef nonnull align 8 dereferenceable(24) %4) #3
  ret void
}

; Function Attrs: mustprogress nounwind uwtable
define linkonce_odr noundef i64 @_ZNSt11char_traitsIcE6lengthEPKc(ptr noundef %0) #4 comdat align 2 {
  %2 = alloca ptr, align 8
  store ptr %0, ptr %2, align 8, !tbaa !7
  %3 = load ptr, ptr %2, align 8, !tbaa !7
  %4 = call i64 @strlen(ptr noundef %3) #3
  ret i64 %4
}

; Function Attrs: inlinehint mustprogress uwtable
define linkonce_odr void @_ZN4absl12lts_202407228OkStatusEv(ptr dead_on_unwind noalias writable sret(%"class.absl::lts_20240722::Status") align 8 %0) #10 comdat {
  %2 = alloca ptr, align 8
  store ptr %0, ptr %2, align 8
  call void @_ZN4absl12lts_202407226StatusC2Ev(ptr noundef nonnull align 8 dereferenceable(8) %0)
  ret void
}

; Function Attrs: mustprogress nounwind uwtable
define linkonce_odr void @_ZNSt6vectorIN4absl12lts_202407226StatusESaIS2_EEC2Ev(ptr noundef nonnull align 8 dereferenceable(24) %0) unnamed_addr #4 comdat align 2 {
  %2 = alloca ptr, align 8
  store ptr %0, ptr %2, align 8, !tbaa !35
  %3 = load ptr, ptr %2, align 8
  call void @_ZNSt12_Vector_baseIN4absl12lts_202407226StatusESaIS2_EEC2Ev(ptr noundef nonnull align 8 dereferenceable(24) %3) #3
  ret void
}

; Function Attrs: mustprogress nounwind uwtable
define linkonce_odr void @_ZN9grpc_core13DebugLocationC2EPKci(ptr noundef nonnull align 1 dereferenceable(1) %0, ptr noundef %1, i32 noundef %2) unnamed_addr #4 comdat align 2 {
  %4 = alloca ptr, align 8
  %5 = alloca ptr, align 8
  %6 = alloca i32, align 4
  store ptr %0, ptr %4, align 8, !tbaa !31
  store ptr %1, ptr %5, align 8, !tbaa !7
  store i32 %2, ptr %6, align 4, !tbaa !33
  ret void
}

; Function Attrs: mustprogress nounwind uwtable
define linkonce_odr void @_ZNSt17basic_string_viewIcSt11char_traitsIcEEC2EPKc(ptr noundef nonnull align 8 dereferenceable(16) %0, ptr noundef nonnull %1) unnamed_addr #4 comdat align 2 personality ptr @__gxx_personality_v0 {
  %3 = alloca ptr, align 8
  %4 = alloca ptr, align 8
  store ptr %0, ptr %3, align 8, !tbaa !26
  store ptr %1, ptr %4, align 8, !tbaa !7
  %5 = load ptr, ptr %3, align 8
  %6 = getelementptr inbounds nuw %"class.std::basic_string_view", ptr %5, i32 0, i32 0
  %7 = load ptr, ptr %4, align 8, !tbaa !7
  %8 = invoke noundef i64 @_ZNSt11char_traitsIcE6lengthEPKc(ptr noundef %7)
          to label %9 unwind label %12

9:                                                ; preds = %2
  store i64 %8, ptr %6, align 8, !tbaa !28
  %10 = getelementptr inbounds nuw %"class.std::basic_string_view", ptr %5, i32 0, i32 1
  %11 = load ptr, ptr %4, align 8, !tbaa !7
  store ptr %11, ptr %10, align 8, !tbaa !30
  ret void

12:                                               ; preds = %2
  %13 = landingpad { ptr, i32 }
          catch ptr null
  %14 = extractvalue { ptr, i32 } %13, 0
  call void @__clang_call_terminate(ptr %14) #28
  unreachable
}

; Function Attrs: mustprogress uwtable
define void @_Z19grpc_ssl_check_alpnPK8tsi_peer(ptr dead_on_unwind noalias writable sret(%"class.absl::lts_20240722::Status") align 8 %0, ptr noundef %1) #5 personality ptr @__gxx_personality_v0 {
  %3 = alloca ptr, align 8
  %4 = alloca ptr, align 8
  %5 = alloca ptr, align 8
  %6 = alloca %"class.std::basic_string_view", align 8
  %7 = alloca %"class.grpc_core::DebugLocation", align 1
  %8 = alloca %"class.std::vector", align 8
  %9 = alloca ptr, align 8
  %10 = alloca i32, align 4
  %11 = alloca i32, align 4
  %12 = alloca %"class.std::basic_string_view", align 8
  %13 = alloca %"class.grpc_core::DebugLocation", align 1
  %14 = alloca %"class.std::vector", align 8
  store ptr %0, ptr %3, align 8
  store ptr %1, ptr %4, align 8, !tbaa !17
  call void @llvm.lifetime.start.p0(i64 8, ptr %5) #3
  %15 = load ptr, ptr %4, align 8, !tbaa !17
  %16 = call noundef ptr @_Z29tsi_peer_get_property_by_namePK8tsi_peerPKc(ptr noundef %15, ptr noundef @.str.2)
  store ptr %16, ptr %5, align 8, !tbaa !19
  %17 = load ptr, ptr %5, align 8, !tbaa !19
  %18 = icmp eq ptr %17, null
  br i1 %18, label %19, label %29

19:                                               ; preds = %2
  call void @_ZNSt17basic_string_viewIcSt11char_traitsIcEEC2EPKc(ptr noundef nonnull align 8 dereferenceable(16) %6, ptr noundef @.str.3) #3
  call void @llvm.lifetime.start.p0(i64 1, ptr %7) #3
  call void @_ZN9grpc_core13DebugLocationC2EPKci(ptr noundef nonnull align 1 dereferenceable(1) %7, ptr noundef @.str, i32 noundef 136)
  call void @llvm.memset.p0.i64(ptr align 8 %8, i8 0, i64 24, i1 false)
  call void @_ZNSt6vectorIN4absl12lts_202407226StatusESaIS2_EEC2Ev(ptr noundef nonnull align 8 dereferenceable(24) %8) #3
  %20 = getelementptr inbounds nuw { i64, ptr }, ptr %6, i32 0, i32 0
  %21 = load i64, ptr %20, align 8
  %22 = getelementptr inbounds nuw { i64, ptr }, ptr %6, i32 0, i32 1
  %23 = load ptr, ptr %22, align 8
  invoke void @_ZN9grpc_core12StatusCreateEN4absl12lts_2024072210StatusCodeESt17basic_string_viewIcSt11char_traitsIcEERKNS_13DebugLocationESt6vectorINS1_6StatusESaISB_EE(ptr dead_on_unwind writable sret(%"class.absl::lts_20240722::Status") align 8 %0, i32 noundef 2, i64 %21, ptr %23, ptr noundef nonnull align 1 dereferenceable(1) %7, ptr noundef %8)
          to label %24 unwind label %25

24:                                               ; preds = %19
  call void @_ZNSt6vectorIN4absl12lts_202407226StatusESaIS2_EED2Ev(ptr noundef nonnull align 8 dereferenceable(24) %8) #3
  call void @llvm.lifetime.end.p0(i64 1, ptr %7) #3
  store i32 1, ptr %11, align 4
  br label %51

25:                                               ; preds = %19
  %26 = landingpad { ptr, i32 }
          cleanup
  %27 = extractvalue { ptr, i32 } %26, 0
  store ptr %27, ptr %9, align 8
  %28 = extractvalue { ptr, i32 } %26, 1
  store i32 %28, ptr %10, align 4
  call void @_ZNSt6vectorIN4absl12lts_202407226StatusESaIS2_EED2Ev(ptr noundef nonnull align 8 dereferenceable(24) %8) #3
  call void @llvm.lifetime.end.p0(i64 1, ptr %7) #3
  br label %52

29:                                               ; preds = %2
  %30 = load ptr, ptr %5, align 8, !tbaa !19
  %31 = getelementptr inbounds nuw %struct.tsi_peer_property, ptr %30, i32 0, i32 1
  %32 = getelementptr inbounds nuw %struct.anon, ptr %31, i32 0, i32 0
  %33 = load ptr, ptr %32, align 8, !tbaa !21
  %34 = load ptr, ptr %5, align 8, !tbaa !19
  %35 = getelementptr inbounds nuw %struct.tsi_peer_property, ptr %34, i32 0, i32 1
  %36 = getelementptr inbounds nuw %struct.anon, ptr %35, i32 0, i32 1
  %37 = load i64, ptr %36, align 8, !tbaa !25
  %38 = call noundef i32 @_Z37grpc_chttp2_is_alpn_version_supportedPKcm(ptr noundef %33, i64 noundef %37)
  %39 = icmp ne i32 %38, 0
  br i1 %39, label %50, label %40

40:                                               ; preds = %29
  call void @_ZNSt17basic_string_viewIcSt11char_traitsIcEEC2EPKc(ptr noundef nonnull align 8 dereferenceable(16) %12, ptr noundef @.str.4) #3
  call void @llvm.lifetime.start.p0(i64 1, ptr %13) #3
  call void @_ZN9grpc_core13DebugLocationC2EPKci(ptr noundef nonnull align 1 dereferenceable(1) %13, ptr noundef @.str, i32 noundef 139)
  call void @llvm.memset.p0.i64(ptr align 8 %14, i8 0, i64 24, i1 false)
  call void @_ZNSt6vectorIN4absl12lts_202407226StatusESaIS2_EEC2Ev(ptr noundef nonnull align 8 dereferenceable(24) %14) #3
  %41 = getelementptr inbounds nuw { i64, ptr }, ptr %12, i32 0, i32 0
  %42 = load i64, ptr %41, align 8
  %43 = getelementptr inbounds nuw { i64, ptr }, ptr %12, i32 0, i32 1
  %44 = load ptr, ptr %43, align 8
  invoke void @_ZN9grpc_core12StatusCreateEN4absl12lts_2024072210StatusCodeESt17basic_string_viewIcSt11char_traitsIcEERKNS_13DebugLocationESt6vectorINS1_6StatusESaISB_EE(ptr dead_on_unwind writable sret(%"class.absl::lts_20240722::Status") align 8 %0, i32 noundef 2, i64 %42, ptr %44, ptr noundef nonnull align 1 dereferenceable(1) %13, ptr noundef %14)
          to label %45 unwind label %46

45:                                               ; preds = %40
  call void @_ZNSt6vectorIN4absl12lts_202407226StatusESaIS2_EED2Ev(ptr noundef nonnull align 8 dereferenceable(24) %14) #3
  call void @llvm.lifetime.end.p0(i64 1, ptr %13) #3
  store i32 1, ptr %11, align 4
  br label %51

46:                                               ; preds = %40
  %47 = landingpad { ptr, i32 }
          cleanup
  %48 = extractvalue { ptr, i32 } %47, 0
  store ptr %48, ptr %9, align 8
  %49 = extractvalue { ptr, i32 } %47, 1
  store i32 %49, ptr %10, align 4
  call void @_ZNSt6vectorIN4absl12lts_202407226StatusESaIS2_EED2Ev(ptr noundef nonnull align 8 dereferenceable(24) %14) #3
  call void @llvm.lifetime.end.p0(i64 1, ptr %13) #3
  br label %52

50:                                               ; preds = %29
  call void @_ZN4absl12lts_202407228OkStatusEv(ptr dead_on_unwind writable sret(%"class.absl::lts_20240722::Status") align 8 %0)
  store i32 1, ptr %11, align 4
  br label %51

51:                                               ; preds = %50, %45, %24
  call void @llvm.lifetime.end.p0(i64 8, ptr %5) #3
  ret void

52:                                               ; preds = %46, %25
  call void @llvm.lifetime.end.p0(i64 8, ptr %5) #3
  br label %53

53:                                               ; preds = %52
  %54 = load ptr, ptr %9, align 8
  %55 = load i32, ptr %10, align 4
  %56 = insertvalue { ptr, i32 } poison, ptr %54, 0
  %57 = insertvalue { ptr, i32 } %56, i32 %55, 1
  resume { ptr, i32 } %57
}