; Function Attrs: mustprogress uwtable
define void @_Z19grpc_ssl_check_alpnPK8tsi_peer(ptr dead_on_unwind noalias writable sret(%"class.absl::lts_20240722::Status") align 8 %0, ptr noundef %1) local_unnamed_addr #4 personality ptr @__gxx_personality_v0 {
  %3 = alloca %"class.grpc_core::DebugLocation", align 1
  %4 = alloca %"class.std::vector", align 8
  %5 = alloca %"class.grpc_core::DebugLocation", align 1
  %6 = alloca %"class.std::vector", align 8
  %7 = tail call noundef ptr @_Z29tsi_peer_get_property_by_namePK8tsi_peerPKc(ptr noundef %1, ptr noundef nonnull @.str.2)
  %8 = icmp eq ptr %7, null
  br i1 %8, label %9, label %31

9:                                                ; preds = %2
  call void @llvm.lifetime.start.p0(i64 1, ptr nonnull %3) #30
  call void @llvm.memset.p0.i64(ptr noundef nonnull align 8 dereferenceable(24) %4, i8 0, i64 24, i1 false)
  invoke void @_ZN9grpc_core12StatusCreateEN4absl12lts_2024072210StatusCodeESt17basic_string_viewIcSt11char_traitsIcEERKNS_13DebugLocationESt6vectorINS1_6StatusESaISB_EE(ptr dead_on_unwind writable sret(%"class.absl::lts_20240722::Status") align 8 %0, i32 noundef 2, i64 50, ptr nonnull @.str.3, ptr noundef nonnull align 1 dereferenceable(1) %3, ptr noundef nonnull %4)
          to label %10 unwind label %29

10:                                               ; preds = %9
  %11 = load ptr, ptr %4, align 8, !tbaa !17
  %12 = getelementptr inbounds nuw i8, ptr %4, i64 8
  %13 = load ptr, ptr %12, align 8, !tbaa !20
  %.not4.i.i.i.i = icmp eq ptr %11, %13
  br i1 %.not4.i.i.i.i, label %_ZSt8_DestroyIPN4absl12lts_202407226StatusES2_EvT_S4_RSaIT0_E.exit.i, label %.lr.ph.i.i.i.i

.lr.ph.i.i.i.i:                                   ; preds = %10, %_ZSt8_DestroyIN4absl12lts_202407226StatusEEvPT_.exit.i.i.i.i
  %.05.i.i.i.i = phi ptr [ %21, %_ZSt8_DestroyIN4absl12lts_202407226StatusEEvPT_.exit.i.i.i.i ], [ %11, %10 ]
  %14 = load i64, ptr %.05.i.i.i.i, align 8, !tbaa !21
  %15 = and i64 %14, 1
  %.not.i.i.i.i.i.i.i = icmp eq i64 %15, 0
  br i1 %.not.i.i.i.i.i.i.i, label %16, label %_ZSt8_DestroyIN4absl12lts_202407226StatusEEvPT_.exit.i.i.i.i

16:                                               ; preds = %.lr.ph.i.i.i.i
  %17 = inttoptr i64 %14 to ptr
  invoke void @_ZNK4absl12lts_2024072215status_internal9StatusRep5UnrefEv(ptr noundef nonnull align 8 dereferenceable(48) %17)
          to label %_ZSt8_DestroyIN4absl12lts_202407226StatusEEvPT_.exit.i.i.i.i unwind label %18

18:                                               ; preds = %16
  %19 = landingpad { ptr, i32 }
          catch ptr null
  %20 = extractvalue { ptr, i32 } %19, 0
  call void @__clang_call_terminate(ptr %20) #35
  unreachable

_ZSt8_DestroyIN4absl12lts_202407226StatusEEvPT_.exit.i.i.i.i: ; preds = %16, %.lr.ph.i.i.i.i
  %21 = getelementptr inbounds nuw i8, ptr %.05.i.i.i.i, i64 8
  %.not.i.i.i.i = icmp eq ptr %21, %13
  br i1 %.not.i.i.i.i, label %_ZSt8_DestroyIPN4absl12lts_202407226StatusES2_EvT_S4_RSaIT0_E.exitthread-pre-split.i, label %.lr.ph.i.i.i.i, !llvm.loop !23

_ZSt8_DestroyIPN4absl12lts_202407226StatusES2_EvT_S4_RSaIT0_E.exitthread-pre-split.i: ; preds = %_ZSt8_DestroyIN4absl12lts_202407226StatusEEvPT_.exit.i.i.i.i
  %.pr.i = load ptr, ptr %4, align 8, !tbaa !17
  br label %_ZSt8_DestroyIPN4absl12lts_202407226StatusES2_EvT_S4_RSaIT0_E.exit.i

_ZSt8_DestroyIPN4absl12lts_202407226StatusES2_EvT_S4_RSaIT0_E.exit.i: ; preds = %_ZSt8_DestroyIPN4absl12lts_202407226StatusES2_EvT_S4_RSaIT0_E.exitthread-pre-split.i, %10
  %22 = phi ptr [ %.pr.i, %_ZSt8_DestroyIPN4absl12lts_202407226StatusES2_EvT_S4_RSaIT0_E.exitthread-pre-split.i ], [ %11, %10 ]
  %.not.i.i.i = icmp eq ptr %22, null
  br i1 %.not.i.i.i, label %_ZNSt6vectorIN4absl12lts_202407226StatusESaIS2_EED2Ev.exit, label %23

23:                                               ; preds = %_ZSt8_DestroyIPN4absl12lts_202407226StatusES2_EvT_S4_RSaIT0_E.exit.i
  %24 = getelementptr inbounds nuw i8, ptr %4, i64 16
  %25 = load ptr, ptr %24, align 8, !tbaa !25
  %26 = ptrtoint ptr %25 to i64
  %27 = ptrtoint ptr %22 to i64
  %28 = sub i64 %26, %27
  call void @_ZdlPvm(ptr noundef nonnull %22, i64 noundef %28) #32
  br label %_ZNSt6vectorIN4absl12lts_202407226StatusESaIS2_EED2Ev.exit

_ZNSt6vectorIN4absl12lts_202407226StatusESaIS2_EED2Ev.exit: ; preds = %_ZSt8_DestroyIPN4absl12lts_202407226StatusES2_EvT_S4_RSaIT0_E.exit.i, %23
  call void @llvm.lifetime.end.p0(i64 1, ptr nonnull %3) #30
  br label %60

29:                                               ; preds = %9
  %30 = landingpad { ptr, i32 }
          cleanup
  call void @_ZNSt6vectorIN4absl12lts_202407226StatusESaIS2_EED2Ev(ptr noundef nonnull align 8 dereferenceable(24) %4) #30
  call void @llvm.lifetime.end.p0(i64 1, ptr nonnull %3) #30
  br label %61

31:                                               ; preds = %2
  %32 = getelementptr inbounds nuw i8, ptr %7, i64 8
  %33 = load ptr, ptr %32, align 8, !tbaa !26
  %34 = getelementptr inbounds nuw i8, ptr %7, i64 16
  %35 = load i64, ptr %34, align 8, !tbaa !29
  %36 = tail call noundef i32 @_Z37grpc_chttp2_is_alpn_version_supportedPKcm(ptr noundef %33, i64 noundef %35)
  %.not = icmp eq i32 %36, 0
  br i1 %.not, label %37, label %59

37:                                               ; preds = %31
  call void @llvm.lifetime.start.p0(i64 1, ptr nonnull %5) #30
  call void @llvm.memset.p0.i64(ptr noundef nonnull align 8 dereferenceable(24) %6, i8 0, i64 24, i1 false)
  invoke void @_ZN9grpc_core12StatusCreateEN4absl12lts_2024072210StatusCodeESt17basic_string_viewIcSt11char_traitsIcEERKNS_13DebugLocationESt6vectorINS1_6StatusESaISB_EE(ptr dead_on_unwind writable sret(%"class.absl::lts_20240722::Status") align 8 %0, i32 noundef 2, i64 38, ptr nonnull @.str.4, ptr noundef nonnull align 1 dereferenceable(1) %5, ptr noundef nonnull %6)
          to label %38 unwind label %57

38:                                               ; preds = %37
  %39 = load ptr, ptr %6, align 8, !tbaa !17
  %40 = getelementptr inbounds nuw i8, ptr %6, i64 8
  %41 = load ptr, ptr %40, align 8, !tbaa !20
  %.not4.i.i.i.i8 = icmp eq ptr %39, %41
  br i1 %.not4.i.i.i.i8, label %_ZSt8_DestroyIPN4absl12lts_202407226StatusES2_EvT_S4_RSaIT0_E.exit.i16, label %.lr.ph.i.i.i.i9

.lr.ph.i.i.i.i9:                                  ; preds = %38, %_ZSt8_DestroyIN4absl12lts_202407226StatusEEvPT_.exit.i.i.i.i12
  %.05.i.i.i.i10 = phi ptr [ %49, %_ZSt8_DestroyIN4absl12lts_202407226StatusEEvPT_.exit.i.i.i.i12 ], [ %39, %38 ]
  %42 = load i64, ptr %.05.i.i.i.i10, align 8, !tbaa !21
  %43 = and i64 %42, 1
  %.not.i.i.i.i.i.i.i11 = icmp eq i64 %43, 0
  br i1 %.not.i.i.i.i.i.i.i11, label %44, label %_ZSt8_DestroyIN4absl12lts_202407226StatusEEvPT_.exit.i.i.i.i12

44:                                               ; preds = %.lr.ph.i.i.i.i9
  %45 = inttoptr i64 %42 to ptr
  invoke void @_ZNK4absl12lts_2024072215status_internal9StatusRep5UnrefEv(ptr noundef nonnull align 8 dereferenceable(48) %45)
          to label %_ZSt8_DestroyIN4absl12lts_202407226StatusEEvPT_.exit.i.i.i.i12 unwind label %46

46:                                               ; preds = %44
  %47 = landingpad { ptr, i32 }
          catch ptr null
  %48 = extractvalue { ptr, i32 } %47, 0
  call void @__clang_call_terminate(ptr %48) #35
  unreachable

_ZSt8_DestroyIN4absl12lts_202407226StatusEEvPT_.exit.i.i.i.i12: ; preds = %44, %.lr.ph.i.i.i.i9
  %49 = getelementptr inbounds nuw i8, ptr %.05.i.i.i.i10, i64 8
  %.not.i.i.i.i13 = icmp eq ptr %49, %41
  br i1 %.not.i.i.i.i13, label %_ZSt8_DestroyIPN4absl12lts_202407226StatusES2_EvT_S4_RSaIT0_E.exitthread-pre-split.i14, label %.lr.ph.i.i.i.i9, !llvm.loop !23

_ZSt8_DestroyIPN4absl12lts_202407226StatusES2_EvT_S4_RSaIT0_E.exitthread-pre-split.i14: ; preds = %_ZSt8_DestroyIN4absl12lts_202407226StatusEEvPT_.exit.i.i.i.i12
  %.pr.i15 = load ptr, ptr %6, align 8, !tbaa !17
  br label %_ZSt8_DestroyIPN4absl12lts_202407226StatusES2_EvT_S4_RSaIT0_E.exit.i16

_ZSt8_DestroyIPN4absl12lts_202407226StatusES2_EvT_S4_RSaIT0_E.exit.i16: ; preds = %_ZSt8_DestroyIPN4absl12lts_202407226StatusES2_EvT_S4_RSaIT0_E.exitthread-pre-split.i14, %38
  %50 = phi ptr [ %.pr.i15, %_ZSt8_DestroyIPN4absl12lts_202407226StatusES2_EvT_S4_RSaIT0_E.exitthread-pre-split.i14 ], [ %39, %38 ]
  %.not.i.i.i17 = icmp eq ptr %50, null
  br i1 %.not.i.i.i17, label %_ZNSt6vectorIN4absl12lts_202407226StatusESaIS2_EED2Ev.exit18, label %51

51:                                               ; preds = %_ZSt8_DestroyIPN4absl12lts_202407226StatusES2_EvT_S4_RSaIT0_E.exit.i16
  %52 = getelementptr inbounds nuw i8, ptr %6, i64 16
  %53 = load ptr, ptr %52, align 8, !tbaa !25
  %54 = ptrtoint ptr %53 to i64
  %55 = ptrtoint ptr %50 to i64
  %56 = sub i64 %54, %55
  call void @_ZdlPvm(ptr noundef nonnull %50, i64 noundef %56) #32
  br label %_ZNSt6vectorIN4absl12lts_202407226StatusESaIS2_EED2Ev.exit18

_ZNSt6vectorIN4absl12lts_202407226StatusESaIS2_EED2Ev.exit18: ; preds = %_ZSt8_DestroyIPN4absl12lts_202407226StatusES2_EvT_S4_RSaIT0_E.exit.i16, %51
  call void @llvm.lifetime.end.p0(i64 1, ptr nonnull %5) #30
  br label %60

57:                                               ; preds = %37
  %58 = landingpad { ptr, i32 }
          cleanup
  call void @_ZNSt6vectorIN4absl12lts_202407226StatusESaIS2_EED2Ev(ptr noundef nonnull align 8 dereferenceable(24) %6) #30
  call void @llvm.lifetime.end.p0(i64 1, ptr nonnull %5) #30
  br label %61

59:                                               ; preds = %31
  store i64 1, ptr %0, align 8, !tbaa !21, !alias.scope !30
  br label %60

60:                                               ; preds = %59, %_ZNSt6vectorIN4absl12lts_202407226StatusESaIS2_EED2Ev.exit18, %_ZNSt6vectorIN4absl12lts_202407226StatusESaIS2_EED2Ev.exit
  ret void

61:                                               ; preds = %57, %29
  %.pn = phi { ptr, i32 } [ %30, %29 ], [ %58, %57 ]
  resume { ptr, i32 } %.pn
}